ARM GAS  C:\Users\quiqu\AppData\Local\Temp\ccV6UDZn.s 			page 1


   1              		.syntax unified
   2              		.cpu cortex-m3
   3              		.fpu softvfp
   4              		.eabi_attribute 20, 1
   5              		.eabi_attribute 21, 1
   6              		.eabi_attribute 23, 3
   7              		.eabi_attribute 24, 1
   8              		.eabi_attribute 25, 1
   9              		.eabi_attribute 26, 1
  10              		.eabi_attribute 30, 1
  11              		.eabi_attribute 34, 1
  12              		.eabi_attribute 18, 4
  13              		.thumb
  14              		.syntax unified
  15              		.file	"main.c"
  16              		.text
  17              	.Ltext0:
  18              		.cfi_sections	.debug_frame
  19              		.section	.text.interruptRX,"ax",%progbits
  20              		.align	2
  21              		.global	interruptRX
  22              		.thumb
  23              		.thumb_func
  24              		.type	interruptRX, %function
  25              	interruptRX:
  26              	.LFB63:
  27              		.file 1 "main.c"
   1:main.c        **** /* ========================================
   2:main.c        ****  *
   3:main.c        ****  * Copyright YOUR COMPANY, THE YEAR
   4:main.c        ****  * All Rights Reserved
   5:main.c        ****  * UNPUBLISHED, LICENSED SOFTWARE.
   6:main.c        ****  *
   7:main.c        ****  * CONFIDENTIAL AND PROPRIETARY INFORMATION
   8:main.c        ****  * WHICH IS THE PROPERTY OF your company.
   9:main.c        ****  *
  10:main.c        ****  * ========================================
  11:main.c        **** */
  12:main.c        **** #include "project.h"
  13:main.c        **** 
  14:main.c        **** int fila = 0, columna = 0;
  15:main.c        **** char dato;
  16:main.c        **** 
  17:main.c        **** CY_ISR(interruptRX) //Genero la rutina de interrupcion de RX de la UART
  18:main.c        **** {
  28              		.loc 1 18 0
  29              		.cfi_startproc
  30              		@ args = 0, pretend = 0, frame = 0
  31              		@ frame_needed = 0, uses_anonymous_args = 0
  32 0000 08B5     		push	{r3, lr}
  33              		.cfi_def_cfa_offset 8
  34              		.cfi_offset 3, -8
  35              		.cfi_offset 14, -4
  19:main.c        ****     dato = UART_GetChar();
  36              		.loc 1 19 0
  37 0002 FFF7FEFF 		bl	UART_GetChar
  38              	.LVL0:
ARM GAS  C:\Users\quiqu\AppData\Local\Temp\ccV6UDZn.s 			page 2


  39 0006 0B4B     		ldr	r3, .L4
  40 0008 1870     		strb	r0, [r3]
  20:main.c        ****     columna = columna + 1;
  41              		.loc 1 20 0
  42 000a 0B4A     		ldr	r2, .L4+4
  43 000c 1368     		ldr	r3, [r2]
  44 000e 0133     		adds	r3, r3, #1
  45 0010 1360     		str	r3, [r2]
  21:main.c        ****     if(columna == 16)
  46              		.loc 1 21 0
  47 0012 102B     		cmp	r3, #16
  48 0014 04D1     		bne	.L2
  22:main.c        ****     {
  23:main.c        ****         fila = 1;
  49              		.loc 1 23 0
  50 0016 1346     		mov	r3, r2
  51 0018 0122     		movs	r2, #1
  52 001a 5A60     		str	r2, [r3, #4]
  24:main.c        ****         columna = 0;
  53              		.loc 1 24 0
  54 001c 0022     		movs	r2, #0
  55 001e 1A60     		str	r2, [r3]
  56              	.L2:
  25:main.c        ****     }
  26:main.c        ****     LCD_Position(fila, columna);
  57              		.loc 1 26 0
  58 0020 054B     		ldr	r3, .L4+4
  59 0022 1978     		ldrb	r1, [r3]	@ zero_extendqisi2
  60 0024 1879     		ldrb	r0, [r3, #4]	@ zero_extendqisi2
  61 0026 FFF7FEFF 		bl	LCD_Position
  62              	.LVL1:
  27:main.c        ****     LCD_PutChar(dato);
  63              		.loc 1 27 0
  64 002a 024B     		ldr	r3, .L4
  65 002c 1878     		ldrb	r0, [r3]	@ zero_extendqisi2
  66 002e FFF7FEFF 		bl	LCD_PutChar
  67              	.LVL2:
  68 0032 08BD     		pop	{r3, pc}
  69              	.L5:
  70              		.align	2
  71              	.L4:
  72 0034 00000000 		.word	dato
  73 0038 00000000 		.word	.LANCHOR0
  74              		.cfi_endproc
  75              	.LFE63:
  76              		.size	interruptRX, .-interruptRX
  77              		.section	.text.main,"ax",%progbits
  78              		.align	2
  79              		.global	main
  80              		.thumb
  81              		.thumb_func
  82              		.type	main, %function
  83              	main:
  84              	.LFB64:
  28:main.c        **** }
  29:main.c        **** 
  30:main.c        **** int main(void)
ARM GAS  C:\Users\quiqu\AppData\Local\Temp\ccV6UDZn.s 			page 3


  31:main.c        **** {
  85              		.loc 1 31 0
  86              		.cfi_startproc
  87              		@ Volatile: function does not return.
  88              		@ args = 0, pretend = 0, frame = 0
  89              		@ frame_needed = 0, uses_anonymous_args = 0
  90 0000 08B5     		push	{r3, lr}
  91              		.cfi_def_cfa_offset 8
  92              		.cfi_offset 3, -8
  93              		.cfi_offset 14, -4
  32:main.c        ****     Clock_1_Start();
  94              		.loc 1 32 0
  95 0002 FFF7FEFF 		bl	Clock_1_Start
  96              	.LVL3:
  33:main.c        ****     LCD_Start();
  97              		.loc 1 33 0
  98 0006 FFF7FEFF 		bl	LCD_Start
  99              	.LVL4:
  34:main.c        ****     PWM_Start();
 100              		.loc 1 34 0
 101 000a FFF7FEFF 		bl	PWM_Start
 102              	.LVL5:
  35:main.c        ****     RXisr_StartEx(interruptRX);
 103              		.loc 1 35 0
 104 000e 0348     		ldr	r0, .L9
 105 0010 FFF7FEFF 		bl	RXisr_StartEx
 106              	.LVL6:
  36:main.c        ****     CyGlobalIntEnable; /* Enable global interrupts. */
 107              		.loc 1 36 0
 108              		.syntax unified
 109              	@ 36 "main.c" 1
 110 0014 62B6     		CPSIE   i
 111              	@ 0 "" 2
  37:main.c        ****     UART_Start();
 112              		.loc 1 37 0
 113              		.thumb
 114              		.syntax unified
 115 0016 FFF7FEFF 		bl	UART_Start
 116              	.LVL7:
 117              	.L7:
 118 001a FEE7     		b	.L7
 119              	.L10:
 120              		.align	2
 121              	.L9:
 122 001c 00000000 		.word	interruptRX
 123              		.cfi_endproc
 124              	.LFE64:
 125              		.size	main, .-main
 126              		.comm	dato,1,1
 127              		.global	columna
 128              		.global	fila
 129              		.bss
 130              		.align	2
 131              		.set	.LANCHOR0,. + 0
 132              		.type	columna, %object
 133              		.size	columna, 4
 134              	columna:
ARM GAS  C:\Users\quiqu\AppData\Local\Temp\ccV6UDZn.s 			page 4


 135 0000 00000000 		.space	4
 136              		.type	fila, %object
 137              		.size	fila, 4
 138              	fila:
 139 0004 00000000 		.space	4
 140              		.text
 141              	.Letext0:
 142              		.file 2 "c:\\program files (x86)\\cypress\\psoc creator\\4.2\\psoc creator\\import\\gnu\\arm\\5.4.
 143              		.file 3 "c:\\program files (x86)\\cypress\\psoc creator\\4.2\\psoc creator\\import\\gnu\\arm\\5.4.
 144              		.file 4 "Generated_Source\\PSoC5/core_cm3.h"
 145              		.file 5 "Generated_Source\\PSoC5/UART.h"
 146              		.file 6 "Generated_Source\\PSoC5/LCD.h"
 147              		.file 7 "Generated_Source\\PSoC5/Clock_1.h"
 148              		.file 8 "Generated_Source\\PSoC5/PWM.h"
 149              		.file 9 "Generated_Source\\PSoC5/RXisr.h"